target datalayout = "e-m:e-p270:32:32-p271:32:32-p272:64:64-i64:64-i128:128-f80:128-n8:16:32:64-S128"
target triple = "x86_64-unknown-linux-gnu"

%class.symbol = type { ptr }
%"class.recfun::case_def" = type <{ %class.obj_ref, %class.ref_vector, %class.obj_ref.0, ptr, i8, [7 x i8] }>
%class.obj_ref = type { ptr, ptr }
%class.ref_vector = type { %class.ref_vector_core }
%class.ref_vector_core = type { %class.ref_manager_wrapper, %class.ptr_vector }
%class.ref_manager_wrapper = type { ptr }
%class.ptr_vector = type { %class.vector }
%class.vector = type { ptr }
%class.obj_ref.0 = type { ptr, ptr }
%"class.recfun::def" = type <{ ptr, %class.symbol, %class.ref_vector.42, %class.obj_ref.47, %class.ref_vector.48, %class.vector.53, %class.obj_ref, %class.obj_ref.0, i32, i8, [3 x i8] }>
%class.ref_vector.42 = type { %class.ref_vector_core.43 }
%class.ref_vector_core.43 = type { %class.ref_manager_wrapper.44, %class.ptr_vector.45 }
%class.ref_manager_wrapper.44 = type { ptr }
%class.ptr_vector.45 = type { %class.vector.46 }
%class.vector.46 = type { ptr }
%class.obj_ref.47 = type { ptr, ptr }
%class.ref_vector.48 = type { %class.ref_vector_core.49 }
%class.ref_vector_core.49 = type { %class.ref_manager_wrapper.50, %class.ptr_vector.51 }
%class.ref_manager_wrapper.50 = type { ptr }
%class.ptr_vector.51 = type { %class.vector.52 }
%class.vector.52 = type { ptr }
%class.vector.53 = type { ptr }

@_ZN6recfun8case_defC1ER11ast_manageriPNS_3defEjRK10ref_vectorI4sortS1_ERKS5_I4exprS1_EPSA_ = hidden unnamed_addr alias void (ptr, ptr, i32, ptr, i32, ptr, ptr, ptr), ptr @_ZN6recfun8case_defC2ER11ast_manageriPNS_3defEjRK10ref_vectorI4sortS1_ERKS5_I4exprS1_EPSA_

; Function Attrs: mustprogress uwtable
define linkonce_odr hidden noundef nonnull align 8 dereferenceable(8) ptr @_ZN6vectorIN6recfun8case_defELb1EjE9push_backERKS1_(ptr noundef nonnull align 8 dereferenceable(8) %this, ptr noundef nonnull align 8 dereferenceable(57) %elem) #4 comdat align 2 {
entry:
  %this.addr = alloca ptr, align 8
  %elem.addr = alloca ptr, align 8
  store ptr %this, ptr %this.addr, align 8
  store ptr %elem, ptr %elem.addr, align 8
  %this1 = load ptr, ptr %this.addr, align 8
  %m_data = getelementptr inbounds %class.vector.53, ptr %this1, i32 0, i32 0
  %0 = load ptr, ptr %m_data, align 8
  %cmp = icmp eq ptr %0, null
  br i1 %cmp, label %if.then, label %lor.lhs.false

lor.lhs.false:                                    ; preds = %entry
  %m_data2 = getelementptr inbounds %class.vector.53, ptr %this1, i32 0, i32 0
  %1 = load ptr, ptr %m_data2, align 8
  %arrayidx = getelementptr inbounds i32, ptr %1, i64 -1
  %2 = load i32, ptr %arrayidx, align 4
  %m_data3 = getelementptr inbounds %class.vector.53, ptr %this1, i32 0, i32 0
  %3 = load ptr, ptr %m_data3, align 8
  %arrayidx4 = getelementptr inbounds i32, ptr %3, i64 -2
  %4 = load i32, ptr %arrayidx4, align 4
  %cmp5 = icmp eq i32 %2, %4
  br i1 %cmp5, label %if.then, label %if.end

if.then:                                          ; preds = %lor.lhs.false, %entry
  call void @_ZN6vectorIN6recfun8case_defELb1EjE13expand_vectorEv(ptr noundef nonnull align 8 dereferenceable(8) %this1)
  br label %if.end

if.end:                                           ; preds = %if.then, %lor.lhs.false
  %m_data6 = getelementptr inbounds %class.vector.53, ptr %this1, i32 0, i32 0
  %5 = load ptr, ptr %m_data6, align 8
  %m_data7 = getelementptr inbounds %class.vector.53, ptr %this1, i32 0, i32 0
  %6 = load ptr, ptr %m_data7, align 8
  %arrayidx8 = getelementptr inbounds i32, ptr %6, i64 -1
  %7 = load i32, ptr %arrayidx8, align 4
  %idx.ext = zext i32 %7 to i64
  %add.ptr = getelementptr inbounds %"class.recfun::case_def", ptr %5, i64 %idx.ext
  %8 = load ptr, ptr %elem.addr, align 8
  call void @_ZN6recfun8case_defC2ERKS0_(ptr noundef nonnull align 8 dereferenceable(57) %add.ptr, ptr noundef nonnull align 8 dereferenceable(57) %8)
  %m_data9 = getelementptr inbounds %class.vector.53, ptr %this1, i32 0, i32 0
  %9 = load ptr, ptr %m_data9, align 8
  %arrayidx10 = getelementptr inbounds i32, ptr %9, i64 -1
  %10 = load i32, ptr %arrayidx10, align 4
  %inc = add i32 %10, 1
  store i32 %inc, ptr %arrayidx10, align 4
  ret ptr %this1
}

; Function Attrs: mustprogress nounwind uwtable
define linkonce_odr hidden void @_ZN6recfun8case_def16set_is_immediateEb(ptr noundef nonnull align 8 dereferenceable(57) %this, i1 noundef zeroext %b) #5 comdat align 2 {
entry:
  %this.addr = alloca ptr, align 8
  %b.addr = alloca i8, align 1
  store ptr %this, ptr %this.addr, align 8
  %frombool = zext i1 %b to i8
  store i8 %frombool, ptr %b.addr, align 1
  %this1 = load ptr, ptr %this.addr, align 8
  %0 = load i8, ptr %b.addr, align 1
  %tobool = trunc i8 %0 to i1
  %m_immediate = getelementptr inbounds %"class.recfun::case_def", ptr %this1, i32 0, i32 4
  %frombool2 = zext i1 %tobool to i8
  store i8 %frombool2, ptr %m_immediate, align 8
  ret void
}

; Function Attrs: mustprogress nounwind uwtable
define linkonce_odr hidden noundef nonnull align 8 dereferenceable(16) ptr @_ZNK6recfun3def10get_domainEv(ptr noundef nonnull align 8 dereferenceable(109) %this) #5 comdat align 2 {
entry:
  %this.addr = alloca ptr, align 8
  store ptr %this, ptr %this.addr, align 8
  %this1 = load ptr, ptr %this.addr, align 8
  %m_domain = getelementptr inbounds %"class.recfun::def", ptr %this1, i32 0, i32 2
  ret ptr %m_domain
}

; Function Attrs: mustprogress uwtable
define hidden void @_ZN6recfun3def8add_caseEjRK10ref_vectorI4expr11ast_managerEPS2_b(ptr noundef nonnull align 8 dereferenceable(109) %this, i32 noundef %case_index, ptr noundef nonnull align 8 dereferenceable(16) %conditions, ptr noundef %rhs, i1 noundef zeroext %is_imm) #4 align 2 personality ptr @__gxx_personality_v0 {
entry:
  %this.addr = alloca ptr, align 8
  %case_index.addr = alloca i32, align 4
  %conditions.addr = alloca ptr, align 8
  %rhs.addr = alloca ptr, align 8
  %is_imm.addr = alloca i8, align 1
  %c = alloca %"class.recfun::case_def", align 8
  %exn.slot = alloca ptr, align 8
  %ehselector.slot = alloca i32, align 4
  store ptr %this, ptr %this.addr, align 8
  store i32 %case_index, ptr %case_index.addr, align 4
  store ptr %conditions, ptr %conditions.addr, align 8
  store ptr %rhs, ptr %rhs.addr, align 8
  %frombool = zext i1 %is_imm to i8
  store i8 %frombool, ptr %is_imm.addr, align 1
  %this1 = load ptr, ptr %this.addr, align 8
  %m = getelementptr inbounds %"class.recfun::def", ptr %this1, i32 0, i32 0
  %0 = load ptr, ptr %m, align 8
  %m_fid = getelementptr inbounds %"class.recfun::def", ptr %this1, i32 0, i32 8
  %1 = load i32, ptr %m_fid, align 8
  %2 = load i32, ptr %case_index.addr, align 4
  %call = call noundef nonnull align 8 dereferenceable(16) ptr @_ZNK6recfun3def10get_domainEv(ptr noundef nonnull align 8 dereferenceable(109) %this1)
  %3 = load ptr, ptr %conditions.addr, align 8
  %4 = load ptr, ptr %rhs.addr, align 8
  call void @_ZN6recfun8case_defC1ER11ast_manageriPNS_3defEjRK10ref_vectorI4sortS1_ERKS5_I4exprS1_EPSA_(ptr noundef nonnull align 8 dereferenceable(57) %c, ptr noundef nonnull align 8 dereferenceable(976) %0, i32 noundef %1, ptr noundef %this1, i32 noundef %2, ptr noundef nonnull align 8 dereferenceable(16) %call, ptr noundef nonnull align 8 dereferenceable(16) %3, ptr noundef %4)
  %5 = load i8, ptr %is_imm.addr, align 1
  %tobool = trunc i8 %5 to i1
  invoke void @_ZN6recfun8case_def16set_is_immediateEb(ptr noundef nonnull align 8 dereferenceable(57) %c, i1 noundef zeroext %tobool)
          to label %invoke.cont unwind label %lpad

invoke.cont:                                      ; preds = %entry
  %m_cases = getelementptr inbounds %"class.recfun::def", ptr %this1, i32 0, i32 5
  %call3 = invoke noundef nonnull align 8 dereferenceable(8) ptr @_ZN6vectorIN6recfun8case_defELb1EjE9push_backERKS1_(ptr noundef nonnull align 8 dereferenceable(8) %m_cases, ptr noundef nonnull align 8 dereferenceable(57) %c)
          to label %invoke.cont2 unwind label %lpad

invoke.cont2:                                     ; preds = %invoke.cont
  call void @_ZN6recfun8case_defD2Ev(ptr noundef nonnull align 8 dereferenceable(57) %c) #3
  ret void

lpad:                                             ; preds = %invoke.cont, %entry
  %6 = landingpad { ptr, i32 }
          cleanup
  %7 = extractvalue { ptr, i32 } %6, 0
  store ptr %7, ptr %exn.slot, align 8
  %8 = extractvalue { ptr, i32 } %6, 1
  store i32 %8, ptr %ehselector.slot, align 4
  call void @_ZN6recfun8case_defD2Ev(ptr noundef nonnull align 8 dereferenceable(57) %c) #3
  br label %eh.resume

eh.resume:                                        ; preds = %lpad
  %exn = load ptr, ptr %exn.slot, align 8
  %sel = load i32, ptr %ehselector.slot, align 4
  %lpad.val = insertvalue { ptr, i32 } poison, ptr %exn, 0
  %lpad.val4 = insertvalue { ptr, i32 } %lpad.val, i32 %sel, 1
  resume { ptr, i32 } %lpad.val4
}