; Function Attrs: mustprogress uwtable
define hidden void @_ZN6recfun3def8add_caseEjRK10ref_vectorI4expr11ast_managerEPS2_b(ptr noundef nonnull align 8 dereferenceable(109) %this, i32 noundef %case_index, ptr nocapture noundef nonnull readonly align 8 dereferenceable(16) %conditions, ptr noundef %rhs, i1 noundef zeroext %is_imm) local_unnamed_addr #3 align 2 personality ptr @__gxx_personality_v0 {
entry:
  %c = alloca %"class.recfun::case_def", align 8
  %0 = load ptr, ptr %this, align 8
  %m_fid = getelementptr inbounds i8, ptr %this, i64 104
  %1 = load i32, ptr %m_fid, align 8
  %m_domain.i = getelementptr inbounds i8, ptr %this, i64 16
  call void @_ZN6recfun8case_defC2ER11ast_manageriPNS_3defEjRK10ref_vectorI4sortS1_ERKS5_I4exprS1_EPSA_(ptr noundef nonnull align 8 dereferenceable(57) %c, ptr noundef nonnull align 8 dereferenceable(976) %0, i32 noundef %1, ptr noundef nonnull %this, i32 noundef %case_index, ptr noundef nonnull align 8 dereferenceable(16) %m_domain.i, ptr noundef nonnull align 8 dereferenceable(16) %conditions, ptr noundef %rhs)
  %frombool.i = zext i1 %is_imm to i8
  %m_immediate.i = getelementptr inbounds i8, ptr %c, i64 56
  store i8 %frombool.i, ptr %m_immediate.i, align 8
  %m_cases = getelementptr inbounds i8, ptr %this, i64 64
  %2 = load ptr, ptr %m_cases, align 8
  %cmp.i = icmp eq ptr %2, null
  br i1 %cmp.i, label %if.then.i, label %lor.lhs.false.i

lor.lhs.false.i:                                  ; preds = %entry
  %arrayidx.i = getelementptr inbounds i8, ptr %2, i64 -4
  %3 = load i32, ptr %arrayidx.i, align 4
  %arrayidx4.i = getelementptr inbounds i8, ptr %2, i64 -8
  %4 = load i32, ptr %arrayidx4.i, align 4
  %cmp5.i = icmp eq i32 %3, %4
  br i1 %cmp5.i, label %if.then.i, label %if.end.i

if.then.i:                                        ; preds = %lor.lhs.false.i, %entry
  invoke void @_ZN6vectorIN6recfun8case_defELb1EjE13expand_vectorEv(ptr noundef nonnull align 8 dereferenceable(8) %m_cases)
          to label %.noexc unwind label %lpad

.noexc:                                           ; preds = %if.then.i
  %.pre.i = load ptr, ptr %m_cases, align 8
  %arrayidx8.phi.trans.insert.i = getelementptr inbounds i8, ptr %.pre.i, i64 -4
  %.pre1.i = load i32, ptr %arrayidx8.phi.trans.insert.i, align 4
  br label %if.end.i

if.end.i:                                         ; preds = %.noexc, %lor.lhs.false.i
  %5 = phi i32 [ %.pre1.i, %.noexc ], [ %3, %lor.lhs.false.i ]
  %6 = phi ptr [ %.pre.i, %.noexc ], [ %2, %lor.lhs.false.i ]
  %idx.ext.i = zext i32 %5 to i64
  %add.ptr.i = getelementptr inbounds %"class.recfun::case_def", ptr %6, i64 %idx.ext.i
  invoke void @_ZN6recfun8case_defC2ERKS0_(ptr noundef nonnull align 8 dereferenceable(57) %add.ptr.i, ptr noundef nonnull align 8 dereferenceable(57) %c)
          to label %invoke.cont2 unwind label %lpad

invoke.cont2:                                     ; preds = %if.end.i
  %7 = load ptr, ptr %m_cases, align 8
  %arrayidx10.i = getelementptr inbounds i8, ptr %7, i64 -4
  %8 = load i32, ptr %arrayidx10.i, align 4
  %inc.i = add i32 %8, 1
  store i32 %inc.i, ptr %arrayidx10.i, align 4
  call void @_ZN6recfun8case_defD2Ev(ptr noundef nonnull align 8 dereferenceable(57) %c) #21
  ret void

lpad:                                             ; preds = %if.end.i, %if.then.i
  %9 = landingpad { ptr, i32 }
          cleanup
  call void @_ZN6recfun8case_defD2Ev(ptr noundef nonnull align 8 dereferenceable(57) %c) #21
  resume { ptr, i32 } %9
}